Certificate:
    Data:
        Version: 3 (0x2)
        Serial Number: 4114 (0x1012)
        Signature Algorithm: sha256WithRSAEncryption
        Issuer: C=FR, ST=IDF, L=Paris, O=Local NODE-OPCUA Certificate Authority, CN=NodeOPCUA-CA
        Validity
            Not Before: Feb 16 16:38:34 2022 GMT
            Not After : Feb 16 16:38:34 2023 GMT
        Subject: C=FR, O=NodeOPCUA, CN=NodeOPCUA
        Subject Public Key Info:
            Public Key Algorithm: rsaEncryption
                RSA Public-Key: (2048 bit)
                Modulus:
                    00:c7:8f:4b:f4:3a:a4:6e:64:10:1e:00:26:30:5b:
                    73:d7:b9:05:90:a5:46:1f:0a:3a:f6:c6:63:2b:1c:
                    65:b7:68:8d:2d:3f:e4:10:02:be:fa:d1:7e:4c:d0:
                    f1:b9:15:b1:f0:12:ce:1b:c7:6b:54:10:31:06:bc:
                    84:34:41:f3:33:09:c9:4c:32:c4:5c:55:bf:08:45:
                    57:c6:22:03:1e:bd:e5:d9:7f:9c:e4:6c:58:92:66:
                    15:33:25:d1:54:c7:0d:7e:7e:35:e2:9f:d2:c4:f9:
                    d2:dd:48:42:dd:9e:54:54:00:e5:9e:38:00:45:c3:
                    11:5f:ac:15:b1:2f:b1:f3:1b:2e:6f:16:f0:00:10:
                    44:d7:b8:38:04:30:73:8c:26:1b:7d:f7:3b:cb:3f:
                    f7:b2:06:65:70:a4:40:8e:fb:ec:7b:be:28:0d:c7:
                    a5:c8:fc:f6:d6:37:77:85:d2:12:ef:30:f0:a9:26:
                    60:19:8a:ce:be:d5:99:f8:26:a7:62:49:64:39:d2:
                    63:dd:b3:17:51:0d:0c:8d:a6:dc:0e:52:88:21:eb:
                    51:b2:dc:16:c4:b4:3e:fb:12:96:d5:5a:63:6b:b8:
                    25:2f:0b:70:8b:0c:7c:66:1f:82:fe:c2:81:69:c7:
                    4b:4b:fd:0f:81:c8:19:4e:2c:6b:e2:4d:8e:e7:d7:
                    2a:a3
                Exponent: 65537 (0x10001)
        X509v3 extensions:
            X509v3 Basic Constraints: critical
                CA:FALSE
            X509v3 Subject Key Identifier: 
                3E:FF:D2:B6:93:8F:81:D6:39:9B:B8:AE:8C:80:13:AD:4A:C8:A6:06
            X509v3 Authority Key Identifier: 
                keyid:4B:C7:1E:05:F1:09:0A:F8:7B:0B:B5:DD:9E:3A:0F:AD:2B:61:8F:B8
                DirName:/C=FR/ST=IDF/L=Paris/O=Local NODE-OPCUA Certificate Authority/CN=NodeOPCUA-CA
                serial:18:9B:5A:89:68:91:31:C0:A5:30:30:E2:79:16:76:65:2C:0E:38:99

            X509v3 Subject Alternative Name: 
                URI:urn:node:NodeOPCUA-DiscoveryServer, DNS:node, IP Address:127.0.0.1
            Netscape Comment: 
                OpenSSL Generated Certificate
            X509v3 Key Usage: critical
                Digital Signature, Non Repudiation, Key Encipherment, Data Encipherment, Key Agreement, Certificate Sign
            X509v3 Extended Key Usage: critical
                TLS Web Server Authentication, TLS Web Client Authentication
    Signature Algorithm: sha256WithRSAEncryption
         b6:6a:82:20:25:66:98:56:3b:5f:95:1c:69:1c:d3:fe:78:e9:
         5c:3a:12:71:ea:04:15:7c:be:4e:ad:c7:53:c2:64:73:96:d5:
         34:1c:37:90:6d:2b:7f:5a:25:7c:20:a0:b5:e8:65:3b:3f:4b:
         31:c3:12:56:ab:df:2b:4e:31:4b:5f:ab:0d:08:71:ed:e8:cc:
         c9:88:05:c3:82:70:a1:4e:6f:ce:3f:84:76:9c:07:8e:11:81:
         37:3b:9f:78:4f:5b:66:02:4c:da:b7:c6:86:af:61:df:d3:c6:
         aa:e3:05:99:9f:97:b4:11:9b:8a:ff:65:5b:43:18:72:ed:0c:
         15:c6:f0:0a:46:81:e1:73:df:89:47:f9:df:4a:3d:f5:08:aa:
         09:43:e6:9b:68:62:f2:40:ab:7c:7a:cc:e3:44:c7:c2:c4:1f:
         e6:3c:4e:71:a1:37:3b:69:d9:94:62:32:7b:fe:a6:f4:e9:7b:
         8c:47:57:e9:5b:d2:68:9e:0a:fb:f3:a3:57:c4:a4:c0:67:d2:
         fd:14:40:94:2c:bc:e5:b2:b2:52:92:f2:90:b9:39:69:60:8f:
         31:0b:4b:43:ff:19:d0:fa:87:38:54:4e:41:15:fd:49:4f:cd:
         a7:f7:67:83:b5:a5:f5:37:33:87:23:d3:69:f1:25:5d:9f:34:
         1d:5f:10:97
-----BEGIN CERTIFICATE-----
MIIEpTCCA42gAwIBAgICEBIwDQYJKoZIhvcNAQELBQAwczELMAkGA1UEBhMCRlIx
DDAKBgNVBAgTA0lERjEOMAwGA1UEBxMFUGFyaXMxLzAtBgNVBAoTJkxvY2FsIE5P
REUtT1BDVUEgQ2VydGlmaWNhdGUgQXV0aG9yaXR5MRUwEwYDVQQDEwxOb2RlT1BD
VUEtQ0EwHhcNMjIwMjE2MTYzODM0WhcNMjMwMjE2MTYzODM0WjA1MQswCQYDVQQG
EwJGUjESMBAGA1UECgwJTm9kZU9QQ1VBMRIwEAYDVQQDDAlOb2RlT1BDVUEwggEi
MA0GCSqGSIb3DQEBAQUAA4IBDwAwggEKAoIBAQDHj0v0OqRuZBAeACYwW3PXuQWQ
pUYfCjr2xmMrHGW3aI0tP+QQAr760X5M0PG5FbHwEs4bx2tUEDEGvIQ0QfMzCclM
MsRcVb8IRVfGIgMeveXZf5zkbFiSZhUzJdFUxw1+fjXin9LE+dLdSELdnlRUAOWe
OABFwxFfrBWxL7HzGy5vFvAAEETXuDgEMHOMJht99zvLP/eyBmVwpECO++x7vigN
x6XI/PbWN3eF0hLvMPCpJmAZis6+1Zn4JqdiSWQ50mPdsxdRDQyNptwOUogh61Gy
3BbEtD77EpbVWmNruCUvC3CLDHxmH4L+woFpx0tL/Q+ByBlOLGviTY7n1yqjAgMB
AAGjggF/MIIBezAMBgNVHRMBAf8EAjAAMB0GA1UdDgQWBBQ+/9K2k4+B1jmbuK6M
gBOtSsimBjCBsAYDVR0jBIGoMIGlgBRLxx4F8QkK+HsLtd2eOg+tK2GPuKF3pHUw
czELMAkGA1UEBhMCRlIxDDAKBgNVBAgTA0lERjEOMAwGA1UEBxMFUGFyaXMxLzAt
BgNVBAoTJkxvY2FsIE5PREUtT1BDVUEgQ2VydGlmaWNhdGUgQXV0aG9yaXR5MRUw
EwYDVQQDEwxOb2RlT1BDVUEtQ0GCFBibWolokTHApTAw4nkWdmUsDjiZMDkGA1Ud
EQQyMDCGInVybjpub2RlOk5vZGVPUENVQS1EaXNjb3ZlcnlTZXJ2ZXKCBG5vZGWH
BH8AAAEwLAYJYIZIAYb4QgENBB8WHU9wZW5TU0wgR2VuZXJhdGVkIENlcnRpZmlj
YXRlMA4GA1UdDwEB/wQEAwIC/DAgBgNVHSUBAf8EFjAUBggrBgEFBQcDAQYIKwYB
BQUHAwIwDQYJKoZIhvcNAQELBQADggEBALZqgiAlZphWO1+VHGkc0/546Vw6EnHq
BBV8vk6tx1PCZHOW1TQcN5BtK39aJXwgoLXoZTs/SzHDElar3ytOMUtfqw0Ice3o
zMmIBcOCcKFOb84/hHacB44RgTc7n3hPW2YCTNq3xoavYd/TxqrjBZmfl7QRm4r/
ZVtDGHLtDBXG8ApGgeFz34lH+d9KPfUIqglD5ptoYvJAq3x6zONEx8LEH+Y8TnGh
Nztp2ZRiMnv+pvTpe4xHV+lb0mieCvvzo1fEpMBn0v0UQJQsvOWyslKS8pC5OWlg
jzELS0P/GdD6hzhUTkEV/UlPzaf3Z4O1pfU3M4cj02nxJV2fNB1fEJc=
-----END CERTIFICATE-----
Certificate:
    Data:
        Version: 1 (0x0)
        Serial Number:
            18:9b:5a:89:68:91:31:c0:a5:30:30:e2:79:16:76:65:2c:0e:38:99
        Signature Algorithm: NULL
        Issuer: C = FR, ST = IDF, L = Paris, O = Local NODE-OPCUA Certificate Authority, CN = NodeOPCUA-CA
        Validity
            Not Before: Feb 17 16:37:11 2022 GMT
            Not After : Feb 15 16:37:11 2032 GMT
        Subject: C = FR, ST = IDF, L = Paris, O = Local NODE-OPCUA Certificate Authority, CN = NodeOPCUA-CA
        Subject Public Key Info:
            Public Key Algorithm: rsaEncryption
                RSA Public-Key: (2048 bit)
                Modulus:
                    00:c2:f1:cf:42:75:b0:22:30:1a:d5:d6:c5:16:b8:
                    27:78:91:b7:90:20:4f:b5:cf:90:ca:0f:9b:3d:21:
                    bb:99:63:96:4f:48:a0:b1:db:99:e0:a6:b6:fb:f5:
                    71:5c:e7:aa:35:b2:dd:e2:12:9c:cb:17:8d:17:7b:
                    5d:7b:52:06:41:6d:0e:ca:94:bf:ea:c8:9a:0d:0d:
                    88:51:f8:49:1d:9f:a8:5c:bd:2b:ff:55:52:5e:85:
                    05:74:ee:c7:db:03:f2:a5:d6:cf:f9:ba:fb:4a:15:
                    49:ea:db:ef:b3:35:1f:ba:c8:7c:08:b4:cd:de:ff:
                    9e:7f:21:23:94:c6:43:70:c9:7a:98:df:50:ec:e2:
                    4f:ea:58:ed:ec:1e:80:70:d7:ae:1f:3e:27:2a:c1:
                    d1:0f:95:70:08:af:6b:82:eb:95:f0:ea:93:c7:72:
                    6f:5b:5b:75:1b:d4:7f:5b:a0:c9:96:e9:74:32:68:
                    3a:54:93:d5:5d:04:5c:69:13:ee:67:2c:3a:1e:45:
                    2d:d3:c6:d6:4d:10:dc:66:4d:0e:46:d2:57:52:c5:
                    e4:d3:8c:fe:e5:74:fa:84:ee:e1:50:46:57:ff:ce:
                    5c:1b:3c:3a:38:0b:71:f8:66:fc:97:ea:c5:62:e2:
                    f8:38:53:c9:95:87:ee:a8:0c:da:da:2b:89:63:d7:
                    b4:7b
                Exponent: 65537 (0x10001)
    Signature Algorithm: NULL
-----BEGIN CERTIFICATE-----
MIIE8zCCA9ugAwIBAgIUGJtaiWiRMcClMDDieRZ2ZSwOOJkwDQYJKoZIhvcNAQEL
BQAwczELMAkGA1UEBhMCRlIxDDAKBgNVBAgTA0lERjEOMAwGA1UEBxMFUGFyaXMx
LzAtBgNVBAoTJkxvY2FsIE5PREUtT1BDVUEgQ2VydGlmaWNhdGUgQXV0aG9yaXR5
MRUwEwYDVQQDEwxOb2RlT1BDVUEtQ0EwHhcNMjIwMjE3MTYzNzExWhcNMzIwMjE1
MTYzNzExWjBzMQswCQYDVQQGEwJGUjEMMAoGA1UECBMDSURGMQ4wDAYDVQQHEwVQ
YXJpczEvMC0GA1UEChMmTG9jYWwgTk9ERS1PUENVQSBDZXJ0aWZpY2F0ZSBBdXRo
b3JpdHkxFTATBgNVBAMTDE5vZGVPUENVQS1DQTCCASIwDQYJKoZIhvcNAQEBBQAD
ggEPADCCAQoCggEBAMLxz0J1sCIwGtXWxRa4J3iRt5AgT7XPkMoPmz0hu5ljlk9I
oLHbmeCmtvv1cVznqjWy3eISnMsXjRd7XXtSBkFtDsqUv+rImg0NiFH4SR2fqFy9
K/9VUl6FBXTux9sD8qXWz/m6+0oVSerb77M1H7rIfAi0zd7/nn8hI5TGQ3DJepjf
UOziT+pY7ewegHDXrh8+JyrB0Q+VcAiva4LrlfDqk8dyb1tbdRvUf1ugyZbpdDJo
OlST1V0EXGkT7mcsOh5FLdPG1k0Q3GZNDkbSV1LF5NOM/uV0+oTu4VBGV//OXBs8
OjgLcfhm/JfqxWLi+DhTyZWH7qgM2toriWPXtHsCAwEAAaOCAX0wggF5MB0GA1Ud
DgQWBBRLxx4F8QkK+HsLtd2eOg+tK2GPuDCBsAYDVR0jBIGoMIGlgBRLxx4F8QkK
+HsLtd2eOg+tK2GPuKF3pHUwczELMAkGA1UEBhMCRlIxDDAKBgNVBAgTA0lERjEO
MAwGA1UEBxMFUGFyaXMxLzAtBgNVBAoTJkxvY2FsIE5PREUtT1BDVUEgQ2VydGlm
aWNhdGUgQXV0aG9yaXR5MRUwEwYDVQQDEwxOb2RlT1BDVUEtQ0GCFBibWolokTHA
pTAw4nkWdmUsDjiZMAwGA1UdEwQFMAMBAf8wDgYDVR0PAQH/BAQDAgEGMFcGCWCG
SAGG+EIBDQRKFkhDQSBDZXJ0aWZpY2F0ZSBnZW5lcmF0ZWQgYnkgTm9kZS1PUENV
QSBDZXJ0aWZpY2F0ZSB1dGlsaXR5IHVzaW5nIG9wZW5zc2wwLgYDVR0fBCcwJTAj
oCGgH4YdaHR0cDovL2xvY2FsaG9zdDo4OTAwL2NybC5wZW0wDQYJKoZIhvcNAQEL
BQADggEBAJcpRlPNwbLwlJB7T7KV49E/BH02ays/ecpBU4Vscb6ijL8oW8oOFK1/
fmAhVSXivVQsF90bLTw/U3pXvCe9JZegeHcANDtbUsEclQF3Qwgtr2d8YNLoguf1
53MRfNEiRMb0uC6TO/CJ4gTiDtxjJdnVN2lOrIqHpQwPtJ9Z9eRvXbzHLApGLuvR
WoAQ9gG7TOdxEyCa88/ndTRrqyDKUKCoFpqwaNI8Ax3Gch9oh9/cUDnhS04je2im
8GlwP8BS0YOW3rZv978vBXj9o44O5KyDxqilQ1Ke3vCxD17HwP/KTzxyEM/Gtjoa
SbJQ4PqOKS6BKX9NAfvjoeGIXw0OlMg=
-----END CERTIFICATE-----
